target datalayout = "e-m:e-p270:32:32-p271:32:32-p272:64:64-i64:64-i128:128-f80:128-n8:16:32:64-S128"
target triple = "x86_64-pc-linux-gnu"

%struct.lv_color_t = type { i8, i8, i8 }

@opa_saved = internal global i8 0, align 1

; Function Attrs: nounwind uwtable
define internal void @add_to_cell(ptr noundef %0, i32 noundef %1, i32 noundef %2) #0 {
  %4 = alloca ptr, align 8
  %5 = alloca i32, align 4
  %6 = alloca i32, align 4
  store ptr %0, ptr %4, align 8, !tbaa !8
  store i32 %1, ptr %5, align 4, !tbaa !3
  store i32 %2, ptr %6, align 4, !tbaa !3
  %7 = load ptr, ptr %4, align 8, !tbaa !8
  %8 = load i32, ptr %5, align 4, !tbaa !3
  %9 = load i32, ptr %6, align 4, !tbaa !3
  call void @lv_obj_set_grid_cell(ptr noundef %7, i32 noundef 1, i32 noundef %8, i32 noundef 1, i32 noundef 1, i32 noundef %9, i32 noundef 1)
  ret void
}

; Function Attrs: nounwind uwtable
define internal ptr @box_shadow_obj_create(ptr noundef %0, i32 noundef %1, i32 noundef %2) #0 {
  %4 = alloca ptr, align 8
  %5 = alloca i32, align 4
  %6 = alloca i32, align 4
  %7 = alloca ptr, align 8
  %8 = alloca %struct.lv_color_t, align 1
  %9 = alloca i24, align 4
  %10 = alloca %struct.lv_color_t, align 1
  %11 = alloca i24, align 4
  store ptr %0, ptr %4, align 8, !tbaa !8
  store i32 %1, ptr %5, align 4, !tbaa !3
  store i32 %2, ptr %6, align 4, !tbaa !3
  call void @llvm.lifetime.start.p0(i64 8, ptr %7) #5
  %12 = load ptr, ptr %4, align 8, !tbaa !8
  %13 = call ptr @lv_obj_create(ptr noundef %12)
  store ptr %13, ptr %7, align 8, !tbaa !8
  %14 = load ptr, ptr %7, align 8, !tbaa !8
  call void @lv_obj_remove_style_all(ptr noundef %14)
  %15 = load ptr, ptr %7, align 8, !tbaa !8
  call void @lv_obj_set_style_bg_opa(ptr noundef %15, i8 noundef zeroext 51, i32 noundef 0)
  %16 = load ptr, ptr %7, align 8, !tbaa !8
  %17 = call i24 @lv_color_black()
  store i24 %17, ptr %8, align 1
  call void @llvm.memcpy.p0.p0.i64(ptr align 4 %9, ptr align 1 %8, i64 3, i1 false)
  %18 = load i24, ptr %9, align 4
  call void @lv_obj_set_style_bg_color(ptr noundef %16, i24 %18, i32 noundef 0)
  %19 = load ptr, ptr %7, align 8, !tbaa !8
  %20 = call i24 @lv_color_hex3(i32 noundef 3840)
  store i24 %20, ptr %10, align 1
  call void @llvm.memcpy.p0.p0.i64(ptr align 4 %11, ptr align 1 %10, i64 3, i1 false)
  %21 = load i24, ptr %11, align 4
  call void @lv_obj_set_style_shadow_color(ptr noundef %19, i24 %21, i32 noundef 0)
  %22 = load ptr, ptr %7, align 8, !tbaa !8
  %23 = load i8, ptr @opa_saved, align 1, !tbaa !7
  call void @lv_obj_set_style_opa(ptr noundef %22, i8 noundef zeroext %23, i32 noundef 0)
  %24 = load ptr, ptr %7, align 8, !tbaa !8
  call void @lv_obj_set_size(ptr noundef %24, i32 noundef 35, i32 noundef 25)
  %25 = load ptr, ptr %7, align 8, !tbaa !8
  %26 = load i32, ptr %5, align 4, !tbaa !3
  %27 = load i32, ptr %6, align 4, !tbaa !3
  call void @add_to_cell(ptr noundef %25, i32 noundef %26, i32 noundef %27)
  %28 = load ptr, ptr %7, align 8, !tbaa !8
  call void @llvm.lifetime.end.p0(i64 8, ptr %7) #5
  ret ptr %28
}