; Function Attrs: nounwind uwtable
define internal fastcc noundef ptr @box_shadow_obj_create(ptr noundef %0, i32 noundef range(i32 0, 7) %1, i32 noundef range(i32 0, 4) %2) unnamed_addr #0 {
  %4 = tail call ptr @lv_obj_create(ptr noundef %0) #6
  tail call void @lv_obj_remove_style_all(ptr noundef %4) #6
  tail call void @lv_obj_set_style_bg_opa(ptr noundef %4, i8 noundef zeroext 51, i32 noundef 0) #6
  %5 = tail call i24 @lv_color_black() #6
  tail call void @lv_obj_set_style_bg_color(ptr noundef %4, i24 %5, i32 noundef 0) #6
  %6 = tail call i24 @lv_color_hex3(i32 noundef 3840) #6
  tail call void @lv_obj_set_style_shadow_color(ptr noundef %4, i24 %6, i32 noundef 0) #6
  %7 = load i8, ptr @opa_saved, align 1, !tbaa !3
  tail call void @lv_obj_set_style_opa(ptr noundef %4, i8 noundef zeroext %7, i32 noundef 0) #6
  tail call void @lv_obj_set_size(ptr noundef %4, i32 noundef 35, i32 noundef 25) #6
  tail call void @lv_obj_set_grid_cell(ptr noundef %4, i32 noundef 1, i32 noundef range(i32 0, 9) %1, i32 noundef 1, i32 noundef 1, i32 noundef range(i32 -8, 21) %2, i32 noundef 1) #6
  ret ptr %4
}